target datalayout = "e-m:e-p270:32:32-p271:32:32-p272:64:64-i64:64-i128:128-f80:128-n8:16:32:64-S128"
target triple = "x86_64-pc-linux-gnu"

%struct.php_avif_stream = type { ptr, [64 x i8] }

; Function Attrs: nounwind uwtable
define internal ptr @php_avif_stream_read(ptr noundef %0, i64 noundef %1) #0 {
  %3 = alloca ptr, align 8
  %4 = alloca ptr, align 8
  %5 = alloca i64, align 8
  %6 = alloca ptr, align 8
  store ptr %0, ptr %4, align 8
  store i64 %1, ptr %5, align 8
  %7 = load ptr, ptr %4, align 8
  store ptr %7, ptr %6, align 8
  %8 = load ptr, ptr %6, align 8
  %9 = icmp eq ptr %8, null
  br i1 %9, label %15, label %10

10:                                               ; preds = %2
  %11 = load ptr, ptr %6, align 8
  %12 = getelementptr inbounds %struct.php_avif_stream, ptr %11, i32 0, i32 0
  %13 = load ptr, ptr %12, align 8
  %14 = icmp eq ptr %13, null
  br i1 %14, label %15, label %16

15:                                               ; preds = %10, %2
  store ptr null, ptr %3, align 8
  br label %34

16:                                               ; preds = %10
  %17 = load ptr, ptr %6, align 8
  %18 = getelementptr inbounds %struct.php_avif_stream, ptr %17, i32 0, i32 0
  %19 = load ptr, ptr %18, align 8
  %20 = load ptr, ptr %6, align 8
  %21 = getelementptr inbounds %struct.php_avif_stream, ptr %20, i32 0, i32 1
  %22 = getelementptr inbounds [64 x i8], ptr %21, i64 0, i64 0
  %23 = load i64, ptr %5, align 8
  %24 = call i64 @_php_stream_read(ptr noundef %19, ptr noundef %22, i64 noundef %23)
  %25 = load i64, ptr %5, align 8
  %26 = icmp ne i64 %24, %25
  br i1 %26, label %27, label %30

27:                                               ; preds = %16
  %28 = load ptr, ptr %6, align 8
  %29 = getelementptr inbounds %struct.php_avif_stream, ptr %28, i32 0, i32 0
  store ptr null, ptr %29, align 8
  store ptr null, ptr %3, align 8
  br label %34

30:                                               ; preds = %16
  %31 = load ptr, ptr %6, align 8
  %32 = getelementptr inbounds %struct.php_avif_stream, ptr %31, i32 0, i32 1
  %33 = getelementptr inbounds [64 x i8], ptr %32, i64 0, i64 0
  store ptr %33, ptr %3, align 8
  br label %34

34:                                               ; preds = %30, %27, %15
  %35 = load ptr, ptr %3, align 8
  ret ptr %35
}