; Function Attrs: nounwind uwtable
define internal noundef ptr @php_avif_stream_read(ptr noundef %0, i64 noundef %1) #0 {
  %3 = icmp eq ptr %0, null
  br i1 %3, label %11, label %4

4:                                                ; preds = %2
  %5 = load ptr, ptr %0, align 8
  %6 = icmp eq ptr %5, null
  br i1 %6, label %11, label %7

7:                                                ; preds = %4
  %8 = getelementptr inbounds i8, ptr %0, i64 8
  %9 = tail call i64 @_php_stream_read(ptr noundef nonnull %5, ptr noundef nonnull %8, i64 noundef %1) #13
  %.not = icmp eq i64 %9, %1
  br i1 %.not, label %11, label %10

10:                                               ; preds = %7
  store ptr null, ptr %0, align 8
  br label %11

11:                                               ; preds = %7, %2, %4, %10
  %.0 = phi ptr [ null, %10 ], [ null, %4 ], [ null, %2 ], [ %8, %7 ]
  ret ptr %.0
}